target datalayout = "e-m:e-p270:32:32-p271:32:32-p272:64:64-i64:64-i128:128-f80:128-n8:16:32:64-S128"
target triple = "x86_64-pc-linux-gnu"

%struct.Wlc_Ntk_t_ = type { ptr, ptr, %struct.Vec_Int_t_, %struct.Vec_Int_t_, %struct.Vec_Int_t_, %struct.Vec_Int_t_, %struct.Vec_Int_t_, %struct.Vec_Int_t_, ptr, ptr, ptr, [60 x i32], [60 x i32], i32, i32, i32, i32, i32, ptr, i32, i32, ptr, ptr, ptr, ptr, ptr, %struct.Vec_Int_t_, %struct.Vec_Int_t_, i32, %struct.Vec_Int_t_, %struct.Vec_Int_t_, %struct.Vec_Int_t_, %struct.Vec_Int_t_, %struct.Vec_Int_t_, %struct.Vec_Int_t_ }
%struct.Vec_Int_t_ = type { i32, i32, ptr }

@.str.11 = private unnamed_addr constant [2 x i8] c"\0A\00", align 1
@.str.173 = private unnamed_addr constant [2 x i8] c"w\00", align 1
@stdout = external global ptr, align 8
@.str.174 = private unnamed_addr constant [51 x i8] c"Wlc_WriteVer(): Cannot open the output file \22%s\22.\0A\00", align 1
@.str.175 = private unnamed_addr constant [55 x i8] c"// Benchmark \22%s\22 from file \22%s\22 written by ABC on %s\0A\00", align 1
@.str.176 = private unnamed_addr constant [8 x i8] c"unknown\00", align 1

; Function Attrs: nounwind uwtable
define void @Wlc_WriteVer(ptr noundef %0, ptr noundef %1, i32 noundef %2, i32 noundef %3) #0 {
  %5 = alloca ptr, align 8
  %6 = alloca ptr, align 8
  %7 = alloca i32, align 4
  %8 = alloca i32, align 4
  %9 = alloca ptr, align 8
  %10 = alloca i32, align 4
  store ptr %0, ptr %5, align 8, !tbaa !16
  store ptr %1, ptr %6, align 8, !tbaa !48
  store i32 %2, ptr %7, align 4, !tbaa !8
  store i32 %3, ptr %8, align 4, !tbaa !8
  call void @llvm.lifetime.start.p0(i64 8, ptr %9) #10
  %11 = load ptr, ptr %6, align 8, !tbaa !48
  %12 = call noalias ptr @fopen(ptr noundef %11, ptr noundef @.str.173)
  store ptr %12, ptr %9, align 8, !tbaa !3
  %13 = load ptr, ptr %9, align 8, !tbaa !3
  %14 = icmp eq ptr %13, null
  br i1 %14, label %15, label %19

15:                                               ; preds = %4
  %16 = load ptr, ptr @stdout, align 8, !tbaa !3
  %17 = load ptr, ptr %6, align 8, !tbaa !48
  %18 = call i32 (ptr, ptr, ...) @fprintf(ptr noundef %16, ptr noundef @.str.174, ptr noundef %17) #10
  store i32 1, ptr %10, align 4
  br label %53

19:                                               ; preds = %4
  %20 = load ptr, ptr %9, align 8, !tbaa !3
  %21 = load ptr, ptr %5, align 8, !tbaa !16
  %22 = getelementptr inbounds nuw %struct.Wlc_Ntk_t_, ptr %21, i32 0, i32 0
  %23 = load ptr, ptr %22, align 8, !tbaa !52
  %24 = load ptr, ptr %5, align 8, !tbaa !16
  %25 = getelementptr inbounds nuw %struct.Wlc_Ntk_t_, ptr %24, i32 0, i32 1
  %26 = load ptr, ptr %25, align 8, !tbaa !88
  %27 = icmp ne ptr %26, null
  br i1 %27, label %28, label %32

28:                                               ; preds = %19
  %29 = load ptr, ptr %5, align 8, !tbaa !16
  %30 = getelementptr inbounds nuw %struct.Wlc_Ntk_t_, ptr %29, i32 0, i32 1
  %31 = load ptr, ptr %30, align 8, !tbaa !88
  br label %33

32:                                               ; preds = %19
  br label %33

33:                                               ; preds = %32, %28
  %34 = phi ptr [ %31, %28 ], [ @.str.176, %32 ]
  %35 = call ptr (...) @Extra_TimeStamp()
  %36 = call i32 (ptr, ptr, ...) @fprintf(ptr noundef %20, ptr noundef @.str.175, ptr noundef %23, ptr noundef %34, ptr noundef %35) #10
  %37 = load ptr, ptr %9, align 8, !tbaa !3
  %38 = call i32 (ptr, ptr, ...) @fprintf(ptr noundef %37, ptr noundef @.str.11) #10
  %39 = load ptr, ptr %9, align 8, !tbaa !3
  %40 = load ptr, ptr %5, align 8, !tbaa !16
  call void @Wlc_WriteTables(ptr noundef %39, ptr noundef %40)
  %41 = load i32, ptr %7, align 4, !tbaa !8
  %42 = icmp ne i32 %41, 0
  br i1 %42, label %43, label %45

43:                                               ; preds = %33
  %44 = load ptr, ptr %5, align 8, !tbaa !16
  call void @Wlc_WriteAddPos(ptr noundef %44)
  br label %45

45:                                               ; preds = %43, %33
  %46 = load ptr, ptr %9, align 8, !tbaa !3
  %47 = load ptr, ptr %5, align 8, !tbaa !16
  %48 = load i32, ptr %8, align 4, !tbaa !8
  call void @Wlc_WriteVerInt(ptr noundef %46, ptr noundef %47, i32 noundef %48)
  %49 = load ptr, ptr %9, align 8, !tbaa !3
  %50 = call i32 (ptr, ptr, ...) @fprintf(ptr noundef %49, ptr noundef @.str.11) #10
  %51 = load ptr, ptr %9, align 8, !tbaa !3
  %52 = call i32 @fclose(ptr noundef %51)
  store i32 0, ptr %10, align 4
  br label %53

53:                                               ; preds = %45, %15
  call void @llvm.lifetime.end.p0(i64 8, ptr %9) #10
  %54 = load i32, ptr %10, align 4
  switch i32 %54, label %56 [
    i32 0, label %55
    i32 1, label %55
  ]

55:                                               ; preds = %53, %53
  ret void

56:                                               ; preds = %53
  unreachable
}