; Function Attrs: nounwind uwtable
define void @Wlc_WriteVer(ptr noundef %0, ptr noundef %1, i32 noundef %2, i32 noundef %3) local_unnamed_addr #3 {
  %5 = tail call noalias ptr @fopen(ptr noundef %1, ptr noundef nonnull @.str.173)
  %6 = icmp eq ptr %5, null
  br i1 %6, label %7, label %10

7:                                                ; preds = %4
  %8 = load ptr, ptr @stdout, align 8, !tbaa !79
  %9 = tail call i32 (ptr, ptr, ...) @fprintf(ptr noundef %8, ptr noundef nonnull @.str.174, ptr noundef %1) #13
  br label %19

10:                                               ; preds = %4
  %11 = load ptr, ptr %0, align 8, !tbaa !42
  %12 = getelementptr inbounds nuw i8, ptr %0, i64 8
  %13 = load ptr, ptr %12, align 8, !tbaa !81
  %.not = icmp eq ptr %13, null
  %spec.select = select i1 %.not, ptr @.str.176, ptr %13
  %14 = tail call ptr (...) @Extra_TimeStamp() #13
  %15 = tail call i32 (ptr, ptr, ...) @fprintf(ptr noundef nonnull %5, ptr noundef nonnull @.str.175, ptr noundef %11, ptr noundef nonnull %spec.select, ptr noundef %14) #13
  %fputc = tail call i32 @fputc(i32 10, ptr nonnull %5)
  tail call void @Wlc_WriteTables(ptr noundef nonnull %5, ptr noundef nonnull %0)
  %.not17 = icmp eq i32 %2, 0
  br i1 %.not17, label %17, label %16

16:                                               ; preds = %10
  tail call void @Wlc_WriteAddPos(ptr noundef nonnull %0)
  br label %17

17:                                               ; preds = %16, %10
  tail call void @Wlc_WriteVerInt(ptr noundef nonnull %5, ptr noundef nonnull %0, i32 noundef %3)
  %fputc18 = tail call i32 @fputc(i32 10, ptr nonnull %5)
  %18 = tail call i32 @fclose(ptr noundef nonnull %5)
  br label %19

19:                                               ; preds = %17, %7
  ret void
}